target datalayout = "e-m:e-p270:32:32-p271:32:32-p272:64:64-i64:64-i128:128-f80:128-n8:16:32:64-S128"
target triple = "x86_64-pc-linux-gnu"

; Function Attrs: nounwind uwtable
define void @x2rgb10tobgr64_nobswap(ptr noundef %0, ptr noundef %1, i32 noundef %2) #0 {
  %4 = alloca ptr, align 8
  %5 = alloca ptr, align 8
  %6 = alloca i32, align 4
  %7 = alloca ptr, align 8
  %8 = alloca ptr, align 8
  %9 = alloca i32, align 4
  %10 = alloca i32, align 4
  %11 = alloca i32, align 4
  %12 = alloca i32, align 4
  store ptr %0, ptr %4, align 8, !tbaa !4
  store ptr %1, ptr %5, align 8, !tbaa !4
  store i32 %2, ptr %6, align 4, !tbaa !9
  call void @llvm.lifetime.start.p0(i64 8, ptr %7) #5
  %13 = load ptr, ptr %5, align 8, !tbaa !4
  store ptr %13, ptr %7, align 8, !tbaa !20
  call void @llvm.lifetime.start.p0(i64 8, ptr %8) #5
  %14 = load ptr, ptr %4, align 8, !tbaa !4
  store ptr %14, ptr %8, align 8, !tbaa !11
  call void @llvm.lifetime.start.p0(i64 4, ptr %9) #5
  call void @llvm.lifetime.start.p0(i64 4, ptr %10) #5
  %15 = load i32, ptr %6, align 4, !tbaa !9
  %16 = ashr i32 %15, 2
  store i32 %16, ptr %10, align 4, !tbaa !9
  call void @llvm.lifetime.start.p0(i64 4, ptr %11) #5
  store i32 0, ptr %9, align 4, !tbaa !9
  br label %17

17:                                               ; preds = %77, %3
  %18 = load i32, ptr %9, align 4, !tbaa !9
  %19 = load i32, ptr %10, align 4, !tbaa !9
  %20 = icmp slt i32 %18, %19
  br i1 %20, label %21, label %80

21:                                               ; preds = %17
  call void @llvm.lifetime.start.p0(i64 4, ptr %12) #5
  %22 = load ptr, ptr %8, align 8, !tbaa !11
  %23 = load i32, ptr %9, align 4, !tbaa !9
  %24 = sext i32 %23 to i64
  %25 = getelementptr inbounds i32, ptr %22, i64 %24
  %26 = load i32, ptr %25, align 1, !tbaa !13
  store i32 %26, ptr %12, align 4, !tbaa !9
  %27 = load i32, ptr %12, align 4, !tbaa !9
  %28 = and i32 %27, 1023
  store i32 %28, ptr %11, align 4, !tbaa !9
  %29 = load i32, ptr %11, align 4, !tbaa !9
  %30 = shl i32 %29, 6
  %31 = load i32, ptr %11, align 4, !tbaa !9
  %32 = lshr i32 %31, 4
  %33 = or i32 %30, %32
  %34 = trunc i32 %33 to i16
  %35 = load ptr, ptr %7, align 8, !tbaa !20
  %36 = load i32, ptr %9, align 4, !tbaa !9
  %37 = mul nsw i32 4, %36
  %38 = add nsw i32 %37, 0
  %39 = sext i32 %38 to i64
  %40 = getelementptr inbounds i16, ptr %35, i64 %39
  store i16 %34, ptr %40, align 2, !tbaa !22
  %41 = load i32, ptr %12, align 4, !tbaa !9
  %42 = lshr i32 %41, 10
  %43 = and i32 %42, 1023
  store i32 %43, ptr %11, align 4, !tbaa !9
  %44 = load i32, ptr %11, align 4, !tbaa !9
  %45 = shl i32 %44, 6
  %46 = load i32, ptr %11, align 4, !tbaa !9
  %47 = lshr i32 %46, 4
  %48 = or i32 %45, %47
  %49 = trunc i32 %48 to i16
  %50 = load ptr, ptr %7, align 8, !tbaa !20
  %51 = load i32, ptr %9, align 4, !tbaa !9
  %52 = mul nsw i32 4, %51
  %53 = add nsw i32 %52, 1
  %54 = sext i32 %53 to i64
  %55 = getelementptr inbounds i16, ptr %50, i64 %54
  store i16 %49, ptr %55, align 2, !tbaa !22
  %56 = load i32, ptr %12, align 4, !tbaa !9
  %57 = lshr i32 %56, 20
  %58 = and i32 %57, 1023
  store i32 %58, ptr %11, align 4, !tbaa !9
  %59 = load i32, ptr %11, align 4, !tbaa !9
  %60 = shl i32 %59, 6
  %61 = load i32, ptr %11, align 4, !tbaa !9
  %62 = lshr i32 %61, 4
  %63 = or i32 %60, %62
  %64 = trunc i32 %63 to i16
  %65 = load ptr, ptr %7, align 8, !tbaa !20
  %66 = load i32, ptr %9, align 4, !tbaa !9
  %67 = mul nsw i32 4, %66
  %68 = add nsw i32 %67, 2
  %69 = sext i32 %68 to i64
  %70 = getelementptr inbounds i16, ptr %65, i64 %69
  store i16 %64, ptr %70, align 2, !tbaa !22
  %71 = load ptr, ptr %7, align 8, !tbaa !20
  %72 = load i32, ptr %9, align 4, !tbaa !9
  %73 = mul nsw i32 4, %72
  %74 = add nsw i32 %73, 3
  %75 = sext i32 %74 to i64
  %76 = getelementptr inbounds i16, ptr %71, i64 %75
  store i16 -1, ptr %76, align 2, !tbaa !22
  call void @llvm.lifetime.end.p0(i64 4, ptr %12) #5
  br label %77

77:                                               ; preds = %21
  %78 = load i32, ptr %9, align 4, !tbaa !9
  %79 = add nsw i32 %78, 1
  store i32 %79, ptr %9, align 4, !tbaa !9
  br label %17, !llvm.loop !50

80:                                               ; preds = %17
  call void @llvm.lifetime.end.p0(i64 4, ptr %11) #5
  call void @llvm.lifetime.end.p0(i64 4, ptr %10) #5
  call void @llvm.lifetime.end.p0(i64 4, ptr %9) #5
  call void @llvm.lifetime.end.p0(i64 8, ptr %8) #5
  call void @llvm.lifetime.end.p0(i64 8, ptr %7) #5
  ret void
}