; Function Attrs: nofree norecurse nosync nounwind memory(argmem: readwrite) uwtable
define void @x2rgb10tobgr64_nobswap(ptr noundef readonly captures(none) %0, ptr noundef writeonly captures(none) %1, i32 noundef %2) local_unnamed_addr #0 {
  %4 = ashr i32 %2, 2
  %5 = icmp sgt i32 %4, 0
  br i1 %5, label %.lr.ph.preheader, label %._crit_edge

.lr.ph.preheader:                                 ; preds = %3
  %wide.trip.count = zext nneg i32 %4 to i64
  br label %.lr.ph

.lr.ph:                                           ; preds = %.lr.ph.preheader, %.lr.ph
  %indvars.iv = phi i64 [ 0, %.lr.ph.preheader ], [ %indvars.iv.next, %.lr.ph ]
  %6 = getelementptr inbounds nuw i32, ptr %0, i64 %indvars.iv
  %7 = load i32, ptr %6, align 1, !tbaa !8
  %8 = and i32 %7, 1023
  %9 = shl nuw nsw i32 %8, 6
  %10 = lshr i32 %8, 4
  %11 = or disjoint i32 %9, %10
  %12 = trunc nuw i32 %11 to i16
  %.idx = shl nsw i64 %indvars.iv, 3
  %13 = getelementptr inbounds nuw i8, ptr %1, i64 %.idx
  store i16 %12, ptr %13, align 2, !tbaa !16
  %14 = lshr i32 %7, 4
  %15 = and i32 %14, 65472
  %16 = lshr i32 %7, 14
  %17 = and i32 %16, 63
  %18 = or disjoint i32 %15, %17
  %19 = trunc nuw i32 %18 to i16
  %20 = getelementptr inbounds nuw i8, ptr %13, i64 2
  store i16 %19, ptr %20, align 2, !tbaa !16
  %21 = and i32 %16, 65472
  %22 = lshr i32 %7, 24
  %23 = and i32 %22, 63
  %24 = or disjoint i32 %21, %23
  %25 = trunc nuw i32 %24 to i16
  %26 = getelementptr inbounds nuw i8, ptr %13, i64 4
  store i16 %25, ptr %26, align 2, !tbaa !16
  %27 = getelementptr inbounds nuw i8, ptr %13, i64 6
  store i16 -1, ptr %27, align 2, !tbaa !16
  %indvars.iv.next = add nuw nsw i64 %indvars.iv, 1
  %exitcond.not = icmp eq i64 %indvars.iv.next, %wide.trip.count
  br i1 %exitcond.not, label %._crit_edge, label %.lr.ph, !llvm.loop !44

._crit_edge:                                      ; preds = %.lr.ph, %3
  ret void
}